; Function Attrs: mustprogress uwtable
define hidden void @_ZN8facebook6hermes7tracing16TraceInterpreter15execAndGetStatsERKNSt7__cxx1112basic_stringIcSt11char_traitsIcESaIcEEERKSt6vectorIS8_SaIS8_EERKNS2_14ExecuteOptionsE(ptr noalias sret(%"class.std::__cxx11::basic_string") align 8 %agg.result, ptr noundef nonnull align 8 dereferenceable(32) %traceFile, ptr nocapture noundef nonnull readonly align 8 dereferenceable(24) %bytecodeFiles, ptr noundef nonnull align 8 dereferenceable(316) %options) local_unnamed_addr #3 align 2 personality ptr @__gxx_personality_v0 {
entry:
  %ref.tmp = alloca %"class.std::function.93", align 8
  %_M_manager.i.i = getelementptr inbounds i8, ptr %ref.tmp, i64 16
  %_M_invoker.i = getelementptr inbounds i8, ptr %ref.tmp, i64 24
  %0 = getelementptr inbounds i8, ptr %ref.tmp, i64 8
  store i64 0, ptr %0, align 8
  store ptr @_ZN8facebook6hermes17makeHermesRuntimeERKN6hermes2vm13RuntimeConfigE, ptr %ref.tmp, align 8
  store ptr @_ZNSt17_Function_handlerIFSt10unique_ptrIN8facebook3jsi7RuntimeESt14default_deleteIS3_EERKN6hermes2vm13RuntimeConfigEEPFS0_INS1_6hermes13HermesRuntimeES4_ISE_EESB_EE9_M_invokeERKSt9_Any_dataSB_, ptr %_M_invoker.i, align 8
  store ptr @_ZNSt17_Function_handlerIFSt10unique_ptrIN8facebook3jsi7RuntimeESt14default_deleteIS3_EERKN6hermes2vm13RuntimeConfigEEPFS0_INS1_6hermes13HermesRuntimeES4_ISE_EESB_EE10_M_managerERSt9_Any_dataRKSK_St18_Manager_operation, ptr %_M_manager.i.i, align 8
  invoke void @_ZN8facebook6hermes7tracing16TraceInterpreter15execWithRuntimeERKNSt7__cxx1112basic_stringIcSt11char_traitsIcESaIcEEERKSt6vectorIS8_SaIS8_EERKNS2_14ExecuteOptionsERKSt8functionIFSt10unique_ptrINS_3jsi7RuntimeESt14default_deleteISM_EERKN6hermes2vm13RuntimeConfigEEE(ptr sret(%"class.std::__cxx11::basic_string") align 8 %agg.result, ptr noundef nonnull align 8 dereferenceable(32) %traceFile, ptr noundef nonnull align 8 dereferenceable(24) %bytecodeFiles, ptr noundef nonnull align 8 dereferenceable(316) %options, ptr noundef nonnull align 8 dereferenceable(32) %ref.tmp)
          to label %invoke.cont unwind label %lpad

invoke.cont:                                      ; preds = %entry
  %1 = load ptr, ptr %_M_manager.i.i, align 8
  %tobool.not.i.i = icmp eq ptr %1, null
  br i1 %tobool.not.i.i, label %_ZNSt8functionIFSt10unique_ptrIN8facebook3jsi7RuntimeESt14default_deleteIS3_EERKN6hermes2vm13RuntimeConfigEEED2Ev.exit, label %if.then.i.i

if.then.i.i:                                      ; preds = %invoke.cont
  %call.i.i = invoke noundef zeroext i1 %1(ptr noundef nonnull align 8 dereferenceable(16) %ref.tmp, ptr noundef nonnull align 8 dereferenceable(16) %ref.tmp, i32 noundef 3)
          to label %_ZNSt8functionIFSt10unique_ptrIN8facebook3jsi7RuntimeESt14default_deleteIS3_EERKN6hermes2vm13RuntimeConfigEEED2Ev.exit unwind label %terminate.lpad.i.i

terminate.lpad.i.i:                               ; preds = %if.then.i.i
  %2 = landingpad { ptr, i32 }
          catch ptr null
  %3 = extractvalue { ptr, i32 } %2, 0
  call void @__clang_call_terminate(ptr %3) #30
  unreachable

_ZNSt8functionIFSt10unique_ptrIN8facebook3jsi7RuntimeESt14default_deleteIS3_EERKN6hermes2vm13RuntimeConfigEEED2Ev.exit: ; preds = %invoke.cont, %if.then.i.i
  ret void

lpad:                                             ; preds = %entry
  %4 = landingpad { ptr, i32 }
          cleanup
  %5 = load ptr, ptr %_M_manager.i.i, align 8
  %tobool.not.i.i3 = icmp eq ptr %5, null
  br i1 %tobool.not.i.i3, label %_ZNSt8functionIFSt10unique_ptrIN8facebook3jsi7RuntimeESt14default_deleteIS3_EERKN6hermes2vm13RuntimeConfigEEED2Ev.exit7, label %if.then.i.i4

if.then.i.i4:                                     ; preds = %lpad
  %call.i.i5 = invoke noundef zeroext i1 %5(ptr noundef nonnull align 8 dereferenceable(16) %ref.tmp, ptr noundef nonnull align 8 dereferenceable(16) %ref.tmp, i32 noundef 3)
          to label %_ZNSt8functionIFSt10unique_ptrIN8facebook3jsi7RuntimeESt14default_deleteIS3_EERKN6hermes2vm13RuntimeConfigEEED2Ev.exit7 unwind label %terminate.lpad.i.i6

terminate.lpad.i.i6:                              ; preds = %if.then.i.i4
  %6 = landingpad { ptr, i32 }
          catch ptr null
  %7 = extractvalue { ptr, i32 } %6, 0
  call void @__clang_call_terminate(ptr %7) #30
  unreachable

_ZNSt8functionIFSt10unique_ptrIN8facebook3jsi7RuntimeESt14default_deleteIS3_EERKN6hermes2vm13RuntimeConfigEEED2Ev.exit7: ; preds = %lpad, %if.then.i.i4
  resume { ptr, i32 } %4
}